; Function Attrs: mustprogress nounwind uwtable
define internal fastcc noundef range(i32 0, 4) i32 @_ZL10DecodeSImmILi9EEN4llvm14MCDisassembler12DecodeStatusERNS0_6MCInstEmmPKS1_(ptr noundef nonnull align 8 dereferenceable(128) %0, i64 noundef range(i64 0, 4294967296) %1) unnamed_addr #0 {
  %.not = icmp samesign ult i64 %1, 512
  br i1 %.not, label %3, label %16

3:                                                ; preds = %2
  %.not6 = icmp samesign ult i64 %1, 256
  %4 = or disjoint i64 %1, -512
  %spec.select = select i1 %.not6, i64 %1, i64 %4
  %5 = getelementptr inbounds nuw i8, ptr %0, i64 16
  %6 = tail call noundef i64 @_ZNK4llvm15SmallVectorBaseIjE4sizeEv(ptr noundef nonnull align 8 dereferenceable(16) %5) #13
  %7 = add i64 %6, 1
  %8 = tail call noundef i64 @_ZNK4llvm15SmallVectorBaseIjE8capacityEv(ptr noundef nonnull align 8 dereferenceable(16) %5) #13
  %.not.i.i.i.i = icmp ugt i64 %7, %8
  br i1 %.not.i.i.i.i, label %9, label %_ZN4llvm6MCInst10addOperandENS_9MCOperandE.exit

9:                                                ; preds = %3
  %10 = getelementptr inbounds nuw i8, ptr %0, i64 32
  tail call void @_ZN4llvm15SmallVectorBaseIjE8grow_podEPvmm(ptr noundef nonnull align 8 dereferenceable(16) %5, ptr noundef nonnull %10, i64 noundef %7, i64 noundef 16) #13
  br label %_ZN4llvm6MCInst10addOperandENS_9MCOperandE.exit

_ZN4llvm6MCInst10addOperandENS_9MCOperandE.exit:  ; preds = %3, %9
  %11 = load ptr, ptr %5, align 8
  %12 = tail call noundef i64 @_ZNK4llvm15SmallVectorBaseIjE4sizeEv(ptr noundef nonnull align 8 dereferenceable(16) %5) #13
  %13 = getelementptr inbounds %"class.llvm::MCOperand", ptr %11, i64 %12
  store i8 2, ptr %13, align 1
  %.sroa.22.0..sroa_idx.i.i = getelementptr inbounds nuw i8, ptr %13, i64 8
  store i64 %spec.select, ptr %.sroa.22.0..sroa_idx.i.i, align 1
  %14 = tail call noundef i64 @_ZNK4llvm15SmallVectorBaseIjE4sizeEv(ptr noundef nonnull align 8 dereferenceable(16) %5) #13
  %15 = add i64 %14, 1
  tail call void @_ZN4llvm15SmallVectorBaseIjE8set_sizeEm(ptr noundef nonnull align 8 dereferenceable(16) %5, i64 noundef %15) #13
  br label %16

16:                                               ; preds = %2, %_ZN4llvm6MCInst10addOperandENS_9MCOperandE.exit
  %.0 = phi i32 [ 3, %_ZN4llvm6MCInst10addOperandENS_9MCOperandE.exit ], [ 0, %2 ]
  ret i32 %.0
}